; ModuleID = '22/1049.c'
source_filename = "22/1049.c"
target datalayout = "e-m:e-p270:32:32-p271:32:32-p272:64:64-i64:64-f80:128-n8:16:32:64-S128"
target triple = "x86_64-pc-linux-gnu"

@.str = private unnamed_addr constant [5 x i8] c"%d%c\00", align 1
@.str.1 = private unnamed_addr constant [4 x i8] c"%d\0A\00", align 1
@.str.2 = private unnamed_addr constant [4 x i8] c"No\0A\00", align 1

; Function Attrs: noinline nounwind uwtable
define dso_local i32 @main() #0 {
  %1 = alloca i32, align 4
  %2 = alloca i32, align 4
  %3 = alloca i32, align 4
  %4 = alloca i32, align 4
  %5 = alloca i32, align 4
  %6 = alloca i32, align 4
  %7 = alloca i32, align 4
  %8 = alloca i32, align 4
  %9 = alloca [300 x i32], align 16
  %10 = alloca [300 x i32], align 16
  %11 = alloca i8, align 1
  store i32 0, i32* %1, align 4
  store i32 0, i32* %2, align 4
  store i32 0, i32* %5, align 4
  store i32 1, i32* %6, align 4
  store i32 0, i32* %7, align 4
  br label %12

12:                                               ; preds = %18, %0
  %13 = load i32, i32* %2, align 4
  %14 = add nsw i32 %13, 1
  store i32 %14, i32* %2, align 4
  %15 = sext i32 %13 to i64
  %16 = getelementptr inbounds [300 x i32], [300 x i32]* %9, i64 0, i64 %15
  %17 = call i32 (i8*, ...) @__isoc99_scanf(i8* getelementptr inbounds ([5 x i8], [5 x i8]* @.str, i64 0, i64 0), i32* %16, i8* %11)
  br label %18

18:                                               ; preds = %12
  %19 = load i8, i8* %11, align 1
  %20 = sext i8 %19 to i32
  %21 = icmp ne i32 %20, 10
  br i1 %21, label %12, label %22

22:                                               ; preds = %18
  %23 = getelementptr inbounds [300 x i32], [300 x i32]* %9, i64 0, i64 0
  %24 = load i32, i32* %23, align 16
  %25 = getelementptr inbounds [300 x i32], [300 x i32]* %10, i64 0, i64 0
  store i32 %24, i32* %25, align 16
  store i32 1, i32* %3, align 4
  br label %26

26:                                               ; preds = %66, %22
  %27 = load i32, i32* %3, align 4
  %28 = load i32, i32* %2, align 4
  %29 = icmp slt i32 %27, %28
  br i1 %29, label %30, label %69

30:                                               ; preds = %26
  store i32 0, i32* %8, align 4
  store i32 0, i32* %4, align 4
  br label %31

31:                                               ; preds = %49, %30
  %32 = load i32, i32* %4, align 4
  %33 = load i32, i32* %3, align 4
  %34 = icmp slt i32 %32, %33
  br i1 %34, label %35, label %52

35:                                               ; preds = %31
  %36 = load i32, i32* %4, align 4
  %37 = sext i32 %36 to i64
  %38 = getelementptr inbounds [300 x i32], [300 x i32]* %9, i64 0, i64 %37
  %39 = load i32, i32* %38, align 4
  %40 = load i32, i32* %3, align 4
  %41 = sext i32 %40 to i64
  %42 = getelementptr inbounds [300 x i32], [300 x i32]* %9, i64 0, i64 %41
  %43 = load i32, i32* %42, align 4
  %44 = icmp eq i32 %39, %43
  br i1 %44, label %45, label %48

45:                                               ; preds = %35
  %46 = load i32, i32* %8, align 4
  %47 = add nsw i32 %46, 1
  store i32 %47, i32* %8, align 4
  store i32 %46, i32* %8, align 4
  br label %48

48:                                               ; preds = %45, %35
  br label %49

49:                                               ; preds = %48
  %50 = load i32, i32* %4, align 4
  %51 = add nsw i32 %50, 1
  store i32 %51, i32* %4, align 4
  br label %31

52:                                               ; preds = %31
  %53 = load i32, i32* %8, align 4
  %54 = icmp eq i32 %53, 0
  br i1 %54, label %55, label %65

55:                                               ; preds = %52
  %56 = load i32, i32* %3, align 4
  %57 = sext i32 %56 to i64
  %58 = getelementptr inbounds [300 x i32], [300 x i32]* %9, i64 0, i64 %57
  %59 = load i32, i32* %58, align 4
  %60 = load i32, i32* %6, align 4
  %61 = sext i32 %60 to i64
  %62 = getelementptr inbounds [300 x i32], [300 x i32]* %10, i64 0, i64 %61
  store i32 %59, i32* %62, align 4
  %63 = load i32, i32* %6, align 4
  %64 = add nsw i32 %63, 1
  store i32 %64, i32* %6, align 4
  store i32 %63, i32* %6, align 4
  br label %65

65:                                               ; preds = %55, %52
  br label %66

66:                                               ; preds = %65
  %67 = load i32, i32* %3, align 4
  %68 = add nsw i32 %67, 1
  store i32 %68, i32* %3, align 4
  br label %26

69:                                               ; preds = %26
  store i32 0, i32* %3, align 4
  br label %70

70:                                               ; preds = %104, %69
  %71 = load i32, i32* %3, align 4
  %72 = load i32, i32* %6, align 4
  %73 = icmp slt i32 %71, %72
  br i1 %73, label %74, label %107

74:                                               ; preds = %70
  store i32 0, i32* %8, align 4
  store i32 0, i32* %4, align 4
  br label %75

75:                                               ; preds = %93, %74
  %76 = load i32, i32* %4, align 4
  %77 = load i32, i32* %6, align 4
  %78 = icmp slt i32 %76, %77
  br i1 %78, label %79, label %96

79:                                               ; preds = %75
  %80 = load i32, i32* %4, align 4
  %81 = sext i32 %80 to i64
  %82 = getelementptr inbounds [300 x i32], [300 x i32]* %10, i64 0, i64 %81
  %83 = load i32, i32* %82, align 4
  %84 = load i32, i32* %3, align 4
  %85 = sext i32 %84 to i64
  %86 = getelementptr inbounds [300 x i32], [300 x i32]* %10, i64 0, i64 %85
  %87 = load i32, i32* %86, align 4
  %88 = icmp sgt i32 %83, %87
  br i1 %88, label %89, label %92

89:                                               ; preds = %79
  %90 = load i32, i32* %8, align 4
  %91 = add nsw i32 %90, 1
  store i32 %91, i32* %8, align 4
  store i32 %90, i32* %8, align 4
  br label %92

92:                                               ; preds = %89, %79
  br label %93

93:                                               ; preds = %92
  %94 = load i32, i32* %4, align 4
  %95 = add nsw i32 %94, 1
  store i32 %95, i32* %4, align 4
  br label %75

96:                                               ; preds = %75
  %97 = load i32, i32* %8, align 4
  %98 = icmp eq i32 %97, 1
  br i1 %98, label %99, label %103

99:                                               ; preds = %96
  %100 = load i32, i32* %3, align 4
  store i32 %100, i32* %5, align 4
  %101 = load i32, i32* %7, align 4
  %102 = add nsw i32 %101, 1
  store i32 %102, i32* %7, align 4
  store i32 %101, i32* %7, align 4
  br label %103

103:                                              ; preds = %99, %96
  br label %104

104:                                              ; preds = %103
  %105 = load i32, i32* %3, align 4
  %106 = add nsw i32 %105, 1
  store i32 %106, i32* %3, align 4
  br label %70

107:                                              ; preds = %70
  %108 = load i32, i32* %7, align 4
  %109 = icmp eq i32 %108, 1
  br i1 %109, label %110, label %116

110:                                              ; preds = %107
  %111 = load i32, i32* %5, align 4
  %112 = sext i32 %111 to i64
  %113 = getelementptr inbounds [300 x i32], [300 x i32]* %10, i64 0, i64 %112
  %114 = load i32, i32* %113, align 4
  %115 = call i32 (i8*, ...) @printf(i8* getelementptr inbounds ([4 x i8], [4 x i8]* @.str.1, i64 0, i64 0), i32 %114)
  br label %118

116:                                              ; preds = %107
  %117 = call i32 (i8*, ...) @printf(i8* getelementptr inbounds ([4 x i8], [4 x i8]* @.str.2, i64 0, i64 0))
  br label %118

118:                                              ; preds = %116, %110
  ret i32 0
}

declare dso_local i32 @__isoc99_scanf(i8*, ...) #1

declare dso_local i32 @printf(i8*, ...) #1


!llvm.module.flags = !{!0}
!llvm.ident = !{!1}

!0 = !{i32 1, !"wchar_size", i32 4}
!1 = !{!"clang version 10.0.0-4ubuntu1 "}
